target datalayout = "e-m:e-p270:32:32-p271:32:32-p272:64:64-i64:64-i128:128-f80:128-n8:16:32:64-S128"
target triple = "x86_64-pc-linux-gnu"

%class.meshopt_Allocator = type { [24 x ptr], i64 }

@_ZN17meshopt_Allocator8StorageTIvE8allocateE = linkonce_odr dso_local global ptr @_Znwm, comdat, align 8

; Function Attrs: mustprogress uwtable
define linkonce_odr dso_local noundef ptr @_ZN17meshopt_Allocator8allocateIjEEPT_m(ptr noundef nonnull align 8 dereferenceable(200) %0, i64 noundef %1) #0 comdat align 2 {
  %3 = alloca ptr, align 8
  %4 = alloca i64, align 8
  %5 = alloca ptr, align 8
  store ptr %0, ptr %3, align 8, !tbaa !18
  store i64 %1, ptr %4, align 8, !tbaa !11
  %6 = load ptr, ptr %3, align 8
  call void @llvm.lifetime.start.p0(i64 8, ptr %5) #10
  %7 = load ptr, ptr @_ZN17meshopt_Allocator8StorageTIvE8allocateE, align 8, !tbaa !22
  %8 = load i64, ptr %4, align 8, !tbaa !11
  %9 = icmp ugt i64 %8, 4611686018427387903
  br i1 %9, label %10, label %11

10:                                               ; preds = %2
  br label %14

11:                                               ; preds = %2
  %12 = load i64, ptr %4, align 8, !tbaa !11
  %13 = mul i64 %12, 4
  br label %14

14:                                               ; preds = %11, %10
  %15 = phi i64 [ -1, %10 ], [ %13, %11 ]
  %16 = call noundef ptr %7(i64 noundef %15)
  store ptr %16, ptr %5, align 8, !tbaa !4
  %17 = load ptr, ptr %5, align 8, !tbaa !4
  %18 = getelementptr inbounds nuw %class.meshopt_Allocator, ptr %6, i32 0, i32 0
  %19 = getelementptr inbounds nuw %class.meshopt_Allocator, ptr %6, i32 0, i32 1
  %20 = load i64, ptr %19, align 8, !tbaa !20
  %21 = add i64 %20, 1
  store i64 %21, ptr %19, align 8, !tbaa !20
  %22 = getelementptr inbounds nuw [24 x ptr], ptr %18, i64 0, i64 %20
  store ptr %17, ptr %22, align 8, !tbaa !22
  %23 = load ptr, ptr %5, align 8, !tbaa !4
  call void @llvm.lifetime.end.p0(i64 8, ptr %5) #10
  ret ptr %23
}

; Function Attrs: mustprogress uwtable
define linkonce_odr dso_local noundef ptr @_ZN17meshopt_Allocator8allocateIfEEPT_m(ptr noundef nonnull align 8 dereferenceable(200) %0, i64 noundef %1) #0 comdat align 2 {
  %3 = alloca ptr, align 8
  %4 = alloca i64, align 8
  %5 = alloca ptr, align 8
  store ptr %0, ptr %3, align 8, !tbaa !18
  store i64 %1, ptr %4, align 8, !tbaa !11
  %6 = load ptr, ptr %3, align 8
  call void @llvm.lifetime.start.p0(i64 8, ptr %5) #10
  %7 = load ptr, ptr @_ZN17meshopt_Allocator8StorageTIvE8allocateE, align 8, !tbaa !22
  %8 = load i64, ptr %4, align 8, !tbaa !11
  %9 = icmp ugt i64 %8, 4611686018427387903
  br i1 %9, label %10, label %11

10:                                               ; preds = %2
  br label %14

11:                                               ; preds = %2
  %12 = load i64, ptr %4, align 8, !tbaa !11
  %13 = mul i64 %12, 4
  br label %14

14:                                               ; preds = %11, %10
  %15 = phi i64 [ -1, %10 ], [ %13, %11 ]
  %16 = call noundef ptr %7(i64 noundef %15)
  store ptr %16, ptr %5, align 8, !tbaa !9
  %17 = load ptr, ptr %5, align 8, !tbaa !9
  %18 = getelementptr inbounds nuw %class.meshopt_Allocator, ptr %6, i32 0, i32 0
  %19 = getelementptr inbounds nuw %class.meshopt_Allocator, ptr %6, i32 0, i32 1
  %20 = load i64, ptr %19, align 8, !tbaa !20
  %21 = add i64 %20, 1
  store i64 %21, ptr %19, align 8, !tbaa !20
  %22 = getelementptr inbounds nuw [24 x ptr], ptr %18, i64 0, i64 %20
  store ptr %17, ptr %22, align 8, !tbaa !22
  %23 = load ptr, ptr %5, align 8, !tbaa !9
  call void @llvm.lifetime.end.p0(i64 8, ptr %5) #10
  ret ptr %23
}

; Function Attrs: mustprogress nounwind uwtable
define linkonce_odr dso_local void @_ZN17meshopt_AllocatorC2Ev(ptr noundef nonnull align 8 dereferenceable(200) %0) unnamed_addr #2 comdat align 2 {
  %2 = alloca ptr, align 8
  store ptr %0, ptr %2, align 8, !tbaa !18
  %3 = load ptr, ptr %2, align 8
  %4 = getelementptr inbounds nuw %class.meshopt_Allocator, ptr %3, i32 0, i32 0
  call void @llvm.memset.p0.i64(ptr align 8 %4, i8 0, i64 192, i1 false)
  %5 = getelementptr inbounds nuw %class.meshopt_Allocator, ptr %3, i32 0, i32 1
  store i64 0, ptr %5, align 8, !tbaa !20
  ret void
}

; Function Attrs: mustprogress uwtable
define dso_local void @meshopt_spatialSortTriangles(ptr noundef %0, ptr noundef %1, i64 noundef %2, ptr noundef %3, i64 noundef %4, i64 noundef %5) #0 personality ptr @__gxx_personality_v0 {
  %7 = alloca ptr, align 8
  %8 = alloca ptr, align 8
  %9 = alloca i64, align 8
  %10 = alloca ptr, align 8
  %11 = alloca i64, align 8
  %12 = alloca i64, align 8
  %13 = alloca i64, align 8
  %14 = alloca i64, align 8
  %15 = alloca %class.meshopt_Allocator, align 8
  %16 = alloca ptr, align 8
  %17 = alloca ptr, align 8
  %18 = alloca i32, align 4
  %19 = alloca i64, align 8
  %20 = alloca i32, align 4
  %21 = alloca i32, align 4
  %22 = alloca i32, align 4
  %23 = alloca ptr, align 8
  %24 = alloca ptr, align 8
  %25 = alloca ptr, align 8
  %26 = alloca ptr, align 8
  %27 = alloca ptr, align 8
  %28 = alloca i64, align 8
  %29 = alloca i32, align 4
  %30 = alloca i32, align 4
  %31 = alloca i32, align 4
  %32 = alloca i32, align 4
  store ptr %0, ptr %7, align 8, !tbaa !4
  store ptr %1, ptr %8, align 8, !tbaa !4
  store i64 %2, ptr %9, align 8, !tbaa !11
  store ptr %3, ptr %10, align 8, !tbaa !9
  store i64 %4, ptr %11, align 8, !tbaa !11
  store i64 %5, ptr %12, align 8, !tbaa !11
  call void @llvm.lifetime.start.p0(i64 8, ptr %13) #10
  %33 = load i64, ptr %9, align 8, !tbaa !11
  %34 = udiv i64 %33, 3
  store i64 %34, ptr %13, align 8, !tbaa !11
  call void @llvm.lifetime.start.p0(i64 8, ptr %14) #10
  %35 = load i64, ptr %12, align 8, !tbaa !11
  %36 = udiv i64 %35, 4
  store i64 %36, ptr %14, align 8, !tbaa !11
  call void @llvm.lifetime.start.p0(i64 200, ptr %15) #10
  call void @_ZN17meshopt_AllocatorC2Ev(ptr noundef nonnull align 8 dereferenceable(200) %15)
  call void @llvm.lifetime.start.p0(i64 8, ptr %16) #10
  %37 = load i64, ptr %13, align 8, !tbaa !11
  %38 = mul i64 %37, 3
  %39 = invoke noundef ptr @_ZN17meshopt_Allocator8allocateIfEEPT_m(ptr noundef nonnull align 8 dereferenceable(200) %15, i64 noundef %38)
          to label %40 unwind label %46

40:                                               ; preds = %6
  store ptr %39, ptr %16, align 8, !tbaa !9
  call void @llvm.lifetime.start.p0(i64 8, ptr %19) #10
  store i64 0, ptr %19, align 8, !tbaa !11
  br label %41

41:                                               ; preds = %138, %40
  %42 = load i64, ptr %19, align 8, !tbaa !11
  %43 = load i64, ptr %13, align 8, !tbaa !11
  %44 = icmp ult i64 %42, %43
  br i1 %44, label %50, label %45

45:                                               ; preds = %41
  call void @llvm.lifetime.end.p0(i64 8, ptr %19) #10
  br label %141

46:                                               ; preds = %6
  %47 = landingpad { ptr, i32 }
          cleanup
  %48 = extractvalue { ptr, i32 } %47, 0
  store ptr %48, ptr %17, align 8
  %49 = extractvalue { ptr, i32 } %47, 1
  store i32 %49, ptr %18, align 4
  br label %224

50:                                               ; preds = %41
  call void @llvm.lifetime.start.p0(i64 4, ptr %20) #10
  %51 = load ptr, ptr %8, align 8, !tbaa !4
  %52 = load i64, ptr %19, align 8, !tbaa !11
  %53 = mul i64 %52, 3
  %54 = add i64 %53, 0
  %55 = getelementptr inbounds nuw i32, ptr %51, i64 %54
  %56 = load i32, ptr %55, align 4, !tbaa !13
  store i32 %56, ptr %20, align 4, !tbaa !13
  call void @llvm.lifetime.start.p0(i64 4, ptr %21) #10
  %57 = load ptr, ptr %8, align 8, !tbaa !4
  %58 = load i64, ptr %19, align 8, !tbaa !11
  %59 = mul i64 %58, 3
  %60 = add i64 %59, 1
  %61 = getelementptr inbounds nuw i32, ptr %57, i64 %60
  %62 = load i32, ptr %61, align 4, !tbaa !13
  store i32 %62, ptr %21, align 4, !tbaa !13
  call void @llvm.lifetime.start.p0(i64 4, ptr %22) #10
  %63 = load ptr, ptr %8, align 8, !tbaa !4
  %64 = load i64, ptr %19, align 8, !tbaa !11
  %65 = mul i64 %64, 3
  %66 = add i64 %65, 2
  %67 = getelementptr inbounds nuw i32, ptr %63, i64 %66
  %68 = load i32, ptr %67, align 4, !tbaa !13
  store i32 %68, ptr %22, align 4, !tbaa !13
  call void @llvm.lifetime.start.p0(i64 8, ptr %23) #10
  %69 = load ptr, ptr %10, align 8, !tbaa !9
  %70 = load i32, ptr %20, align 4, !tbaa !13
  %71 = zext i32 %70 to i64
  %72 = load i64, ptr %14, align 8, !tbaa !11
  %73 = mul i64 %71, %72
  %74 = getelementptr inbounds nuw float, ptr %69, i64 %73
  store ptr %74, ptr %23, align 8, !tbaa !9
  call void @llvm.lifetime.start.p0(i64 8, ptr %24) #10
  %75 = load ptr, ptr %10, align 8, !tbaa !9
  %76 = load i32, ptr %21, align 4, !tbaa !13
  %77 = zext i32 %76 to i64
  %78 = load i64, ptr %14, align 8, !tbaa !11
  %79 = mul i64 %77, %78
  %80 = getelementptr inbounds nuw float, ptr %75, i64 %79
  store ptr %80, ptr %24, align 8, !tbaa !9
  call void @llvm.lifetime.start.p0(i64 8, ptr %25) #10
  %81 = load ptr, ptr %10, align 8, !tbaa !9
  %82 = load i32, ptr %22, align 4, !tbaa !13
  %83 = zext i32 %82 to i64
  %84 = load i64, ptr %14, align 8, !tbaa !11
  %85 = mul i64 %83, %84
  %86 = getelementptr inbounds nuw float, ptr %81, i64 %85
  store ptr %86, ptr %25, align 8, !tbaa !9
  %87 = load ptr, ptr %23, align 8, !tbaa !9
  %88 = getelementptr inbounds float, ptr %87, i64 0
  %89 = load float, ptr %88, align 4, !tbaa !23
  %90 = load ptr, ptr %24, align 8, !tbaa !9
  %91 = getelementptr inbounds float, ptr %90, i64 0
  %92 = load float, ptr %91, align 4, !tbaa !23
  %93 = fadd float %89, %92
  %94 = load ptr, ptr %25, align 8, !tbaa !9
  %95 = getelementptr inbounds float, ptr %94, i64 0
  %96 = load float, ptr %95, align 4, !tbaa !23
  %97 = fadd float %93, %96
  %98 = fdiv float %97, 3.000000e+00
  %99 = load ptr, ptr %16, align 8, !tbaa !9
  %100 = load i64, ptr %19, align 8, !tbaa !11
  %101 = mul i64 %100, 3
  %102 = add i64 %101, 0
  %103 = getelementptr inbounds nuw float, ptr %99, i64 %102
  store float %98, ptr %103, align 4, !tbaa !23
  %104 = load ptr, ptr %23, align 8, !tbaa !9
  %105 = getelementptr inbounds float, ptr %104, i64 1
  %106 = load float, ptr %105, align 4, !tbaa !23
  %107 = load ptr, ptr %24, align 8, !tbaa !9
  %108 = getelementptr inbounds float, ptr %107, i64 1
  %109 = load float, ptr %108, align 4, !tbaa !23
  %110 = fadd float %106, %109
  %111 = load ptr, ptr %25, align 8, !tbaa !9
  %112 = getelementptr inbounds float, ptr %111, i64 1
  %113 = load float, ptr %112, align 4, !tbaa !23
  %114 = fadd float %110, %113
  %115 = fdiv float %114, 3.000000e+00
  %116 = load ptr, ptr %16, align 8, !tbaa !9
  %117 = load i64, ptr %19, align 8, !tbaa !11
  %118 = mul i64 %117, 3
  %119 = add i64 %118, 1
  %120 = getelementptr inbounds nuw float, ptr %116, i64 %119
  store float %115, ptr %120, align 4, !tbaa !23
  %121 = load ptr, ptr %23, align 8, !tbaa !9
  %122 = getelementptr inbounds float, ptr %121, i64 2
  %123 = load float, ptr %122, align 4, !tbaa !23
  %124 = load ptr, ptr %24, align 8, !tbaa !9
  %125 = getelementptr inbounds float, ptr %124, i64 2
  %126 = load float, ptr %125, align 4, !tbaa !23
  %127 = fadd float %123, %126
  %128 = load ptr, ptr %25, align 8, !tbaa !9
  %129 = getelementptr inbounds float, ptr %128, i64 2
  %130 = load float, ptr %129, align 4, !tbaa !23
  %131 = fadd float %127, %130
  %132 = fdiv float %131, 3.000000e+00
  %133 = load ptr, ptr %16, align 8, !tbaa !9
  %134 = load i64, ptr %19, align 8, !tbaa !11
  %135 = mul i64 %134, 3
  %136 = add i64 %135, 2
  %137 = getelementptr inbounds nuw float, ptr %133, i64 %136
  store float %132, ptr %137, align 4, !tbaa !23
  call void @llvm.lifetime.end.p0(i64 8, ptr %25) #10
  call void @llvm.lifetime.end.p0(i64 8, ptr %24) #10
  call void @llvm.lifetime.end.p0(i64 8, ptr %23) #10
  call void @llvm.lifetime.end.p0(i64 4, ptr %22) #10
  call void @llvm.lifetime.end.p0(i64 4, ptr %21) #10
  call void @llvm.lifetime.end.p0(i64 4, ptr %20) #10
  br label %138

138:                                              ; preds = %50
  %139 = load i64, ptr %19, align 8, !tbaa !11
  %140 = add i64 %139, 1
  store i64 %140, ptr %19, align 8, !tbaa !11
  br label %41, !llvm.loop !32

141:                                              ; preds = %45
  call void @llvm.lifetime.start.p0(i64 8, ptr %26) #10
  %142 = load i64, ptr %13, align 8, !tbaa !11
  %143 = invoke noundef ptr @_ZN17meshopt_Allocator8allocateIjEEPT_m(ptr noundef nonnull align 8 dereferenceable(200) %15, i64 noundef %142)
          to label %144 unwind label %161

144:                                              ; preds = %141
  store ptr %143, ptr %26, align 8, !tbaa !4
  %145 = load ptr, ptr %26, align 8, !tbaa !4
  %146 = load ptr, ptr %16, align 8, !tbaa !9
  %147 = load i64, ptr %13, align 8, !tbaa !11
  invoke void @meshopt_spatialSortRemap(ptr noundef %145, ptr noundef %146, i64 noundef %147, i64 noundef 12)
          to label %148 unwind label %161

148:                                              ; preds = %144
  %149 = load ptr, ptr %7, align 8, !tbaa !4
  %150 = load ptr, ptr %8, align 8, !tbaa !4
  %151 = icmp eq ptr %149, %150
  br i1 %151, label %152, label %169

152:                                              ; preds = %148
  call void @llvm.lifetime.start.p0(i64 8, ptr %27) #10
  %153 = load i64, ptr %9, align 8, !tbaa !11
  %154 = invoke noundef ptr @_ZN17meshopt_Allocator8allocateIjEEPT_m(ptr noundef nonnull align 8 dereferenceable(200) %15, i64 noundef %153)
          to label %155 unwind label %165

155:                                              ; preds = %152
  store ptr %154, ptr %27, align 8, !tbaa !4
  %156 = load ptr, ptr %27, align 8, !tbaa !4
  %157 = load ptr, ptr %8, align 8, !tbaa !4
  %158 = load i64, ptr %9, align 8, !tbaa !11
  %159 = mul i64 %158, 4
  call void @llvm.memcpy.p0.p0.i64(ptr align 4 %156, ptr align 4 %157, i64 %159, i1 false)
  %160 = load ptr, ptr %27, align 8, !tbaa !4
  store ptr %160, ptr %8, align 8, !tbaa !4
  call void @llvm.lifetime.end.p0(i64 8, ptr %27) #10
  br label %169

161:                                              ; preds = %144, %141
  %162 = landingpad { ptr, i32 }
          cleanup
  %163 = extractvalue { ptr, i32 } %162, 0
  store ptr %163, ptr %17, align 8
  %164 = extractvalue { ptr, i32 } %162, 1
  store i32 %164, ptr %18, align 4
  br label %223

165:                                              ; preds = %152
  %166 = landingpad { ptr, i32 }
          cleanup
  %167 = extractvalue { ptr, i32 } %166, 0
  store ptr %167, ptr %17, align 8
  %168 = extractvalue { ptr, i32 } %166, 1
  store i32 %168, ptr %18, align 4
  call void @llvm.lifetime.end.p0(i64 8, ptr %27) #10
  br label %223

169:                                              ; preds = %155, %148
  call void @llvm.lifetime.start.p0(i64 8, ptr %28) #10
  store i64 0, ptr %28, align 8, !tbaa !11
  br label %170

170:                                              ; preds = %219, %169
  %171 = load i64, ptr %28, align 8, !tbaa !11
  %172 = load i64, ptr %13, align 8, !tbaa !11
  %173 = icmp ult i64 %171, %172
  br i1 %173, label %175, label %174

174:                                              ; preds = %170
  call void @llvm.lifetime.end.p0(i64 8, ptr %28) #10
  br label %222

175:                                              ; preds = %170
  call void @llvm.lifetime.start.p0(i64 4, ptr %29) #10
  %176 = load ptr, ptr %8, align 8, !tbaa !4
  %177 = load i64, ptr %28, align 8, !tbaa !11
  %178 = mul i64 %177, 3
  %179 = add i64 %178, 0
  %180 = getelementptr inbounds nuw i32, ptr %176, i64 %179
  %181 = load i32, ptr %180, align 4, !tbaa !13
  store i32 %181, ptr %29, align 4, !tbaa !13
  call void @llvm.lifetime.start.p0(i64 4, ptr %30) #10
  %182 = load ptr, ptr %8, align 8, !tbaa !4
  %183 = load i64, ptr %28, align 8, !tbaa !11
  %184 = mul i64 %183, 3
  %185 = add i64 %184, 1
  %186 = getelementptr inbounds nuw i32, ptr %182, i64 %185
  %187 = load i32, ptr %186, align 4, !tbaa !13
  store i32 %187, ptr %30, align 4, !tbaa !13
  call void @llvm.lifetime.start.p0(i64 4, ptr %31) #10
  %188 = load ptr, ptr %8, align 8, !tbaa !4
  %189 = load i64, ptr %28, align 8, !tbaa !11
  %190 = mul i64 %189, 3
  %191 = add i64 %190, 2
  %192 = getelementptr inbounds nuw i32, ptr %188, i64 %191
  %193 = load i32, ptr %192, align 4, !tbaa !13
  store i32 %193, ptr %31, align 4, !tbaa !13
  call void @llvm.lifetime.start.p0(i64 4, ptr %32) #10
  %194 = load ptr, ptr %26, align 8, !tbaa !4
  %195 = load i64, ptr %28, align 8, !tbaa !11
  %196 = getelementptr inbounds nuw i32, ptr %194, i64 %195
  %197 = load i32, ptr %196, align 4, !tbaa !13
  store i32 %197, ptr %32, align 4, !tbaa !13
  %198 = load i32, ptr %29, align 4, !tbaa !13
  %199 = load ptr, ptr %7, align 8, !tbaa !4
  %200 = load i32, ptr %32, align 4, !tbaa !13
  %201 = mul i32 %200, 3
  %202 = add i32 %201, 0
  %203 = zext i32 %202 to i64
  %204 = getelementptr inbounds nuw i32, ptr %199, i64 %203
  store i32 %198, ptr %204, align 4, !tbaa !13
  %205 = load i32, ptr %30, align 4, !tbaa !13
  %206 = load ptr, ptr %7, align 8, !tbaa !4
  %207 = load i32, ptr %32, align 4, !tbaa !13
  %208 = mul i32 %207, 3
  %209 = add i32 %208, 1
  %210 = zext i32 %209 to i64
  %211 = getelementptr inbounds nuw i32, ptr %206, i64 %210
  store i32 %205, ptr %211, align 4, !tbaa !13
  %212 = load i32, ptr %31, align 4, !tbaa !13
  %213 = load ptr, ptr %7, align 8, !tbaa !4
  %214 = load i32, ptr %32, align 4, !tbaa !13
  %215 = mul i32 %214, 3
  %216 = add i32 %215, 2
  %217 = zext i32 %216 to i64
  %218 = getelementptr inbounds nuw i32, ptr %213, i64 %217
  store i32 %212, ptr %218, align 4, !tbaa !13
  call void @llvm.lifetime.end.p0(i64 4, ptr %32) #10
  call void @llvm.lifetime.end.p0(i64 4, ptr %31) #10
  call void @llvm.lifetime.end.p0(i64 4, ptr %30) #10
  call void @llvm.lifetime.end.p0(i64 4, ptr %29) #10
  br label %219

219:                                              ; preds = %175
  %220 = load i64, ptr %28, align 8, !tbaa !11
  %221 = add i64 %220, 1
  store i64 %221, ptr %28, align 8, !tbaa !11
  br label %170, !llvm.loop !33

222:                                              ; preds = %174
  call void @llvm.lifetime.end.p0(i64 8, ptr %26) #10
  call void @llvm.lifetime.end.p0(i64 8, ptr %16) #10
  call void @_ZN17meshopt_AllocatorD2Ev(ptr noundef nonnull align 8 dereferenceable(200) %15) #10
  call void @llvm.lifetime.end.p0(i64 200, ptr %15) #10
  call void @llvm.lifetime.end.p0(i64 8, ptr %14) #10
  call void @llvm.lifetime.end.p0(i64 8, ptr %13) #10
  ret void

223:                                              ; preds = %165, %161
  call void @llvm.lifetime.end.p0(i64 8, ptr %26) #10
  br label %224

224:                                              ; preds = %223, %46
  call void @llvm.lifetime.end.p0(i64 8, ptr %16) #10
  call void @_ZN17meshopt_AllocatorD2Ev(ptr noundef nonnull align 8 dereferenceable(200) %15) #10
  call void @llvm.lifetime.end.p0(i64 200, ptr %15) #10
  call void @llvm.lifetime.end.p0(i64 8, ptr %14) #10
  call void @llvm.lifetime.end.p0(i64 8, ptr %13) #10
  br label %225

225:                                              ; preds = %224
  %226 = load ptr, ptr %17, align 8
  %227 = load i32, ptr %18, align 4
  %228 = insertvalue { ptr, i32 } poison, ptr %226, 0
  %229 = insertvalue { ptr, i32 } %228, i32 %227, 1
  resume { ptr, i32 } %229
}