; Function Attrs: mustprogress uwtable
define dso_local void @meshopt_spatialSortTriangles(ptr noundef writeonly %0, ptr noundef readonly %1, i64 noundef %2, ptr noundef readonly captures(none) %3, i64 noundef %4, i64 noundef %5) local_unnamed_addr #0 personality ptr @__gxx_personality_v0 {
  %7 = alloca %class.meshopt_Allocator, align 8
  %8 = udiv i64 %2, 3
  %9 = lshr i64 %5, 2
  call void @llvm.lifetime.start.p0(i64 200, ptr nonnull %7) #10
  call void @llvm.memset.p0.i64(ptr noundef nonnull align 8 dereferenceable(200) %7, i8 0, i64 200, i1 false)
  %10 = load ptr, ptr @_ZN17meshopt_Allocator8StorageTIvE8allocateE, align 8, !tbaa !4
  %11 = icmp ugt i64 %2, 4611686018427387905
  %12 = mul i64 %8, 12
  %13 = select i1 %11, i64 -1, i64 %12
  %14 = invoke noundef ptr %10(i64 noundef %13)
          to label %_ZN17meshopt_Allocator8allocateIfEEPT_m.exit unwind label %21

_ZN17meshopt_Allocator8allocateIfEEPT_m.exit:     ; preds = %6
  %15 = getelementptr inbounds nuw i8, ptr %7, i64 192
  store i64 1, ptr %15, align 8, !tbaa !8
  store ptr %14, ptr %7, align 8, !tbaa !4
  %.not = icmp ult i64 %2, 3
  br i1 %.not, label %._crit_edge, label %.lr.ph

._crit_edge:                                      ; preds = %.lr.ph, %_ZN17meshopt_Allocator8allocateIfEEPT_m.exit
  %16 = load ptr, ptr @_ZN17meshopt_Allocator8StorageTIvE8allocateE, align 8, !tbaa !4
  %17 = icmp ugt i64 %2, -4611686018427387905
  %18 = shl nuw i64 %8, 2
  %19 = select i1 %17, i64 -1, i64 %18
  %20 = invoke noundef ptr %16(i64 noundef %19)
          to label %69 unwind label %81

21:                                               ; preds = %6
  %22 = landingpad { ptr, i32 }
          cleanup
  br label %113

.lr.ph:                                           ; preds = %_ZN17meshopt_Allocator8allocateIfEEPT_m.exit, %.lr.ph
  %.07179 = phi i64 [ %68, %.lr.ph ], [ 0, %_ZN17meshopt_Allocator8allocateIfEEPT_m.exit ]
  %23 = mul nuw i64 %.07179, 3
  %24 = getelementptr inbounds nuw i32, ptr %1, i64 %23
  %25 = load i32, ptr %24, align 4, !tbaa !16
  %26 = add nuw i64 %23, 1
  %27 = getelementptr inbounds nuw i32, ptr %1, i64 %26
  %28 = load i32, ptr %27, align 4, !tbaa !16
  %29 = add nuw i64 %23, 2
  %30 = getelementptr inbounds nuw i32, ptr %1, i64 %29
  %31 = load i32, ptr %30, align 4, !tbaa !16
  %32 = zext i32 %25 to i64
  %33 = mul i64 %9, %32
  %34 = getelementptr inbounds nuw float, ptr %3, i64 %33
  %35 = zext i32 %28 to i64
  %36 = mul i64 %9, %35
  %37 = getelementptr inbounds nuw float, ptr %3, i64 %36
  %38 = zext i32 %31 to i64
  %39 = mul i64 %9, %38
  %40 = getelementptr inbounds nuw float, ptr %3, i64 %39
  %41 = load float, ptr %34, align 4, !tbaa !11
  %42 = load float, ptr %37, align 4, !tbaa !11
  %43 = fadd float %41, %42
  %44 = load float, ptr %40, align 4, !tbaa !11
  %45 = fadd float %43, %44
  %46 = fdiv float %45, 3.000000e+00
  %47 = getelementptr inbounds nuw float, ptr %14, i64 %23
  store float %46, ptr %47, align 4, !tbaa !11
  %48 = getelementptr inbounds nuw i8, ptr %34, i64 4
  %49 = load float, ptr %48, align 4, !tbaa !11
  %50 = getelementptr inbounds nuw i8, ptr %37, i64 4
  %51 = load float, ptr %50, align 4, !tbaa !11
  %52 = fadd float %49, %51
  %53 = getelementptr inbounds nuw i8, ptr %40, i64 4
  %54 = load float, ptr %53, align 4, !tbaa !11
  %55 = fadd float %52, %54
  %56 = fdiv float %55, 3.000000e+00
  %57 = getelementptr inbounds nuw float, ptr %14, i64 %26
  store float %56, ptr %57, align 4, !tbaa !11
  %58 = getelementptr inbounds nuw i8, ptr %34, i64 8
  %59 = load float, ptr %58, align 4, !tbaa !11
  %60 = getelementptr inbounds nuw i8, ptr %37, i64 8
  %61 = load float, ptr %60, align 4, !tbaa !11
  %62 = fadd float %59, %61
  %63 = getelementptr inbounds nuw i8, ptr %40, i64 8
  %64 = load float, ptr %63, align 4, !tbaa !11
  %65 = fadd float %62, %64
  %66 = fdiv float %65, 3.000000e+00
  %67 = getelementptr inbounds nuw float, ptr %14, i64 %29
  store float %66, ptr %67, align 4, !tbaa !11
  %68 = add nuw nsw i64 %.07179, 1
  %exitcond.not = icmp eq i64 %68, %8
  br i1 %exitcond.not, label %._crit_edge, label %.lr.ph, !llvm.loop !25

69:                                               ; preds = %._crit_edge
  store i64 2, ptr %15, align 8, !tbaa !8
  %70 = getelementptr inbounds nuw i8, ptr %7, i64 8
  store ptr %20, ptr %70, align 8, !tbaa !4
  invoke void @meshopt_spatialSortRemap(ptr noundef %20, ptr noundef %14, i64 noundef %8, i64 noundef 12)
          to label %71 unwind label %81

71:                                               ; preds = %69
  %72 = icmp eq ptr %0, %1
  br i1 %72, label %73, label %85

73:                                               ; preds = %71
  %74 = load ptr, ptr @_ZN17meshopt_Allocator8StorageTIvE8allocateE, align 8, !tbaa !4
  %75 = icmp ugt i64 %2, 4611686018427387903
  %76 = shl i64 %2, 2
  %77 = select i1 %75, i64 -1, i64 %76
  %78 = invoke noundef ptr %74(i64 noundef %77)
          to label %79 unwind label %83

79:                                               ; preds = %73
  %80 = getelementptr inbounds nuw i8, ptr %7, i64 16
  store ptr %78, ptr %80, align 8, !tbaa !4
  tail call void @llvm.memcpy.p0.p0.i64(ptr align 4 %78, ptr align 4 %1, i64 %76, i1 false)
  br label %85

81:                                               ; preds = %._crit_edge, %69
  %82 = landingpad { ptr, i32 }
          cleanup
  br label %113

83:                                               ; preds = %73
  %84 = landingpad { ptr, i32 }
          cleanup
  br label %113

85:                                               ; preds = %79, %71
  %86 = phi i64 [ 3, %79 ], [ 2, %71 ]
  %.0 = phi ptr [ %78, %79 ], [ %1, %71 ]
  br i1 %.not, label %._crit_edge83.preheader, label %.lr.ph82

._crit_edge83.preheader:                          ; preds = %.lr.ph82, %85
  br label %._crit_edge83

._crit_edge83:                                    ; preds = %._crit_edge83.preheader, %87
  %.0.i = phi i64 [ %89, %87 ], [ %86, %._crit_edge83.preheader ]
  %.not.i = icmp eq i64 %.0.i, 0
  br i1 %.not.i, label %_ZN17meshopt_AllocatorD2Ev.exit, label %87

87:                                               ; preds = %._crit_edge83
  %88 = load ptr, ptr @_ZN17meshopt_Allocator8StorageTIvE10deallocateE, align 8, !tbaa !4
  %89 = add i64 %.0.i, -1
  %90 = getelementptr inbounds nuw [24 x ptr], ptr %7, i64 0, i64 %89
  %91 = load ptr, ptr %90, align 8, !tbaa !4
  invoke void %88(ptr noundef %91)
          to label %._crit_edge83 unwind label %92, !llvm.loop !23

92:                                               ; preds = %87
  %93 = landingpad { ptr, i32 }
          catch ptr null
  %94 = extractvalue { ptr, i32 } %93, 0
  tail call void @__clang_call_terminate(ptr %94) #11
  unreachable

_ZN17meshopt_AllocatorD2Ev.exit:                  ; preds = %._crit_edge83
  call void @llvm.lifetime.end.p0(i64 200, ptr nonnull %7) #10
  ret void

.lr.ph82:                                         ; preds = %85, %.lr.ph82
  %.07280 = phi i64 [ %112, %.lr.ph82 ], [ 0, %85 ]
  %.idx = mul nuw i64 %.07280, 12
  %95 = getelementptr inbounds nuw i8, ptr %.0, i64 %.idx
  %96 = load i32, ptr %95, align 4, !tbaa !16
  %97 = getelementptr i8, ptr %95, i64 4
  %98 = load i32, ptr %97, align 4, !tbaa !16
  %99 = getelementptr i8, ptr %95, i64 8
  %100 = load i32, ptr %99, align 4, !tbaa !16
  %101 = getelementptr inbounds nuw i32, ptr %20, i64 %.07280
  %102 = load i32, ptr %101, align 4, !tbaa !16
  %103 = mul i32 %102, 3
  %104 = zext i32 %103 to i64
  %105 = getelementptr inbounds nuw i32, ptr %0, i64 %104
  store i32 %96, ptr %105, align 4, !tbaa !16
  %106 = add i32 %103, 1
  %107 = zext i32 %106 to i64
  %108 = getelementptr inbounds nuw i32, ptr %0, i64 %107
  store i32 %98, ptr %108, align 4, !tbaa !16
  %109 = add i32 %103, 2
  %110 = zext i32 %109 to i64
  %111 = getelementptr inbounds nuw i32, ptr %0, i64 %110
  store i32 %100, ptr %111, align 4, !tbaa !16
  %112 = add nuw nsw i64 %.07280, 1
  %exitcond85.not = icmp eq i64 %112, %8
  br i1 %exitcond85.not, label %._crit_edge83.preheader, label %.lr.ph82, !llvm.loop !26

113:                                              ; preds = %81, %83, %21
  %.pn.pn = phi { ptr, i32 } [ %22, %21 ], [ %84, %83 ], [ %82, %81 ]
  call void @_ZN17meshopt_AllocatorD2Ev(ptr noundef nonnull align 8 dereferenceable(200) %7) #10
  call void @llvm.lifetime.end.p0(i64 200, ptr nonnull %7) #10
  resume { ptr, i32 } %.pn.pn
}